target datalayout = "e-m:e-p270:32:32-p271:32:32-p272:64:64-i64:64-i128:128-f80:128-n8:16:32:64-S128"
target triple = "x86_64-pc-linux-gnu"

%struct._e_guid_t = type { i32, i16, i16, [8 x i8] }
%struct._dcerpc_info = type { ptr, i32, i64, i8, i8, i8, i32, i32, i32, i32, i32, i32, i32, i32, ptr, ptr, ptr, ptr, %struct.anon }
%struct.anon = type { i8, ptr, ptr, ptr, i8 }
%struct._dcerpc_call_value = type { %struct._e_guid_t, i16, %struct._e_guid_t, i16, i32, %struct.nstime_t, i32, i32, ptr, ptr, ptr, i32 }
%struct.nstime_t = type { i64, i32 }

@ett_samr_samr_UserInfo6 = internal global i32 0, align 4
@hf_samr_samr_UserInfo6_account_name = internal global i32 0, align 4
@hf_samr_samr_UserInfo6_full_name = internal global i32 0, align 4

; Function Attrs: null_pointer_is_valid sspstrong uwtable
define internal i32 @samr_dissect_element_UserInfo6_full_name(ptr noundef %0, i32 noundef %1, ptr noundef %2, ptr noundef %3, ptr noundef %4, ptr noundef %5) #0 {
  %7 = alloca ptr, align 8
  %8 = alloca i32, align 4
  %9 = alloca ptr, align 8
  %10 = alloca ptr, align 8
  %11 = alloca ptr, align 8
  %12 = alloca ptr, align 8
  store ptr %0, ptr %7, align 8
  store i32 %1, ptr %8, align 4
  store ptr %2, ptr %9, align 8
  store ptr %3, ptr %10, align 8
  store ptr %4, ptr %11, align 8
  store ptr %5, ptr %12, align 8
  %13 = load ptr, ptr %7, align 8
  %14 = load i32, ptr %8, align 4
  %15 = load ptr, ptr %9, align 8
  %16 = load ptr, ptr %10, align 8
  %17 = load ptr, ptr %11, align 8
  %18 = load ptr, ptr %12, align 8
  %19 = load i32, ptr @hf_samr_samr_UserInfo6_full_name, align 4
  %20 = call i32 @dissect_ndr_lsa_String(ptr noundef %13, i32 noundef %14, ptr noundef %15, ptr noundef %16, ptr noundef %17, ptr noundef %18, i32 noundef 0, i32 noundef %19)
  store i32 %20, ptr %8, align 4
  %21 = load i32, ptr %8, align 4
  ret i32 %21
}

; Function Attrs: null_pointer_is_valid sspstrong uwtable
define internal i32 @samr_dissect_element_UserInfo6_account_name(ptr noundef %0, i32 noundef %1, ptr noundef %2, ptr noundef %3, ptr noundef %4, ptr noundef %5) #0 {
  %7 = alloca ptr, align 8
  %8 = alloca i32, align 4
  %9 = alloca ptr, align 8
  %10 = alloca ptr, align 8
  %11 = alloca ptr, align 8
  %12 = alloca ptr, align 8
  store ptr %0, ptr %7, align 8
  store i32 %1, ptr %8, align 4
  store ptr %2, ptr %9, align 8
  store ptr %3, ptr %10, align 8
  store ptr %4, ptr %11, align 8
  store ptr %5, ptr %12, align 8
  %13 = load ptr, ptr %7, align 8
  %14 = load i32, ptr %8, align 4
  %15 = load ptr, ptr %9, align 8
  %16 = load ptr, ptr %10, align 8
  %17 = load ptr, ptr %11, align 8
  %18 = load ptr, ptr %12, align 8
  %19 = load i32, ptr @hf_samr_samr_UserInfo6_account_name, align 4
  %20 = call i32 @dissect_ndr_lsa_String(ptr noundef %13, i32 noundef %14, ptr noundef %15, ptr noundef %16, ptr noundef %17, ptr noundef %18, i32 noundef 0, i32 noundef %19)
  store i32 %20, ptr %8, align 4
  %21 = load i32, ptr %8, align 4
  ret i32 %21
}

; Function Attrs: null_pointer_is_valid sspstrong uwtable
define hidden i32 @samr_dissect_struct_UserInfo6(ptr noundef %0, i32 noundef %1, ptr noundef %2, ptr noundef %3, ptr noundef %4, ptr noundef %5, i32 noundef %6, i32 noundef %7) #0 {
  %9 = alloca ptr, align 8
  %10 = alloca i32, align 4
  %11 = alloca ptr, align 8
  %12 = alloca ptr, align 8
  %13 = alloca ptr, align 8
  %14 = alloca ptr, align 8
  %15 = alloca i32, align 4
  %16 = alloca i32, align 4
  %17 = alloca ptr, align 8
  %18 = alloca ptr, align 8
  %19 = alloca i32, align 4
  store ptr %0, ptr %9, align 8
  store i32 %1, ptr %10, align 4
  store ptr %2, ptr %11, align 8
  store ptr %3, ptr %12, align 8
  store ptr %4, ptr %13, align 8
  store ptr %5, ptr %14, align 8
  store i32 %6, ptr %15, align 4
  store i32 %7, ptr %16, align 4
  call void @llvm.lifetime.start.p0(i64 8, ptr %17) #4
  store ptr null, ptr %17, align 8
  call void @llvm.lifetime.start.p0(i64 8, ptr %18) #4
  store ptr null, ptr %18, align 8
  call void @llvm.lifetime.start.p0(i64 4, ptr %19) #4
  %20 = load ptr, ptr %13, align 8
  %21 = getelementptr inbounds nuw %struct._dcerpc_info, ptr %20, i32 0, i32 14
  %22 = load ptr, ptr %21, align 8
  %23 = getelementptr inbounds nuw %struct._dcerpc_call_value, ptr %22, i32 0, i32 11
  %24 = load i32, ptr %23, align 8
  %25 = and i32 %24, 1
  %26 = icmp ne i32 %25, 0
  br i1 %26, label %27, label %42

27:                                               ; preds = %8
  %28 = load ptr, ptr %13, align 8
  %29 = getelementptr inbounds nuw %struct._dcerpc_info, ptr %28, i32 0, i32 4
  %30 = load i8, ptr %29, align 1, !range !6, !noundef !7
  %31 = trunc i8 %30 to i1
  br i1 %31, label %41, label %32

32:                                               ; preds = %27
  %33 = load i32, ptr %10, align 4
  %34 = and i32 %33, 7
  %35 = icmp ne i32 %34, 0
  br i1 %35, label %36, label %40

36:                                               ; preds = %32
  %37 = load i32, ptr %10, align 4
  %38 = and i32 %37, -8
  %39 = add i32 %38, 8
  store i32 %39, ptr %10, align 4
  br label %40

40:                                               ; preds = %36, %32
  br label %41

41:                                               ; preds = %40, %27
  br label %57

42:                                               ; preds = %8
  %43 = load ptr, ptr %13, align 8
  %44 = getelementptr inbounds nuw %struct._dcerpc_info, ptr %43, i32 0, i32 4
  %45 = load i8, ptr %44, align 1, !range !6, !noundef !7
  %46 = trunc i8 %45 to i1
  br i1 %46, label %56, label %47

47:                                               ; preds = %42
  %48 = load i32, ptr %10, align 4
  %49 = and i32 %48, 3
  %50 = icmp ne i32 %49, 0
  br i1 %50, label %51, label %55

51:                                               ; preds = %47
  %52 = load i32, ptr %10, align 4
  %53 = and i32 %52, -4
  %54 = add i32 %53, 4
  store i32 %54, ptr %10, align 4
  br label %55

55:                                               ; preds = %51, %47
  br label %56

56:                                               ; preds = %55, %42
  br label %57

57:                                               ; preds = %56, %41
  %58 = load i32, ptr %10, align 4
  store i32 %58, ptr %19, align 4
  %59 = load ptr, ptr %12, align 8
  %60 = icmp ne ptr %59, null
  br i1 %60, label %61, label %70

61:                                               ; preds = %57
  %62 = load ptr, ptr %12, align 8
  %63 = load i32, ptr %15, align 4
  %64 = load ptr, ptr %9, align 8
  %65 = load i32, ptr %10, align 4
  %66 = call ptr @proto_tree_add_item(ptr noundef %62, i32 noundef %63, ptr noundef %64, i32 noundef %65, i32 noundef -1, i32 noundef 0)
  store ptr %66, ptr %17, align 8
  %67 = load ptr, ptr %17, align 8
  %68 = load i32, ptr @ett_samr_samr_UserInfo6, align 4
  %69 = call ptr @proto_item_add_subtree(ptr noundef %67, i32 noundef %68)
  store ptr %69, ptr %18, align 8
  br label %70

70:                                               ; preds = %61, %57
  %71 = load ptr, ptr %9, align 8
  %72 = load i32, ptr %10, align 4
  %73 = load ptr, ptr %11, align 8
  %74 = load ptr, ptr %18, align 8
  %75 = load ptr, ptr %13, align 8
  %76 = load ptr, ptr %14, align 8
  %77 = call i32 @samr_dissect_element_UserInfo6_account_name(ptr noundef %71, i32 noundef %72, ptr noundef %73, ptr noundef %74, ptr noundef %75, ptr noundef %76)
  store i32 %77, ptr %10, align 4
  %78 = load ptr, ptr %9, align 8
  %79 = load i32, ptr %10, align 4
  %80 = load ptr, ptr %11, align 8
  %81 = load ptr, ptr %18, align 8
  %82 = load ptr, ptr %13, align 8
  %83 = load ptr, ptr %14, align 8
  %84 = call i32 @samr_dissect_element_UserInfo6_full_name(ptr noundef %78, i32 noundef %79, ptr noundef %80, ptr noundef %81, ptr noundef %82, ptr noundef %83)
  store i32 %84, ptr %10, align 4
  %85 = load ptr, ptr %17, align 8
  %86 = load i32, ptr %10, align 4
  %87 = load i32, ptr %19, align 4
  %88 = sub i32 %86, %87
  call void @proto_item_set_len(ptr noundef %85, i32 noundef %88)
  %89 = load ptr, ptr %13, align 8
  %90 = getelementptr inbounds nuw %struct._dcerpc_info, ptr %89, i32 0, i32 14
  %91 = load ptr, ptr %90, align 8
  %92 = getelementptr inbounds nuw %struct._dcerpc_call_value, ptr %91, i32 0, i32 11
  %93 = load i32, ptr %92, align 8
  %94 = and i32 %93, 1
  %95 = icmp ne i32 %94, 0
  br i1 %95, label %96, label %135

96:                                               ; preds = %70
  %97 = load ptr, ptr %13, align 8
  %98 = getelementptr inbounds nuw %struct._dcerpc_info, ptr %97, i32 0, i32 14
  %99 = load ptr, ptr %98, align 8
  %100 = getelementptr inbounds nuw %struct._dcerpc_call_value, ptr %99, i32 0, i32 11
  %101 = load i32, ptr %100, align 8
  %102 = and i32 %101, 1
  %103 = icmp ne i32 %102, 0
  br i1 %103, label %104, label %119

104:                                              ; preds = %96
  %105 = load ptr, ptr %13, align 8
  %106 = getelementptr inbounds nuw %struct._dcerpc_info, ptr %105, i32 0, i32 4
  %107 = load i8, ptr %106, align 1, !range !6, !noundef !7
  %108 = trunc i8 %107 to i1
  br i1 %108, label %118, label %109

109:                                              ; preds = %104
  %110 = load i32, ptr %10, align 4
  %111 = and i32 %110, 7
  %112 = icmp ne i32 %111, 0
  br i1 %112, label %113, label %117

113:                                              ; preds = %109
  %114 = load i32, ptr %10, align 4
  %115 = and i32 %114, -8
  %116 = add i32 %115, 8
  store i32 %116, ptr %10, align 4
  br label %117

117:                                              ; preds = %113, %109
  br label %118

118:                                              ; preds = %117, %104
  br label %134

119:                                              ; preds = %96
  %120 = load ptr, ptr %13, align 8
  %121 = getelementptr inbounds nuw %struct._dcerpc_info, ptr %120, i32 0, i32 4
  %122 = load i8, ptr %121, align 1, !range !6, !noundef !7
  %123 = trunc i8 %122 to i1
  br i1 %123, label %133, label %124

124:                                              ; preds = %119
  %125 = load i32, ptr %10, align 4
  %126 = and i32 %125, 3
  %127 = icmp ne i32 %126, 0
  br i1 %127, label %128, label %132

128:                                              ; preds = %124
  %129 = load i32, ptr %10, align 4
  %130 = and i32 %129, -4
  %131 = add i32 %130, 4
  store i32 %131, ptr %10, align 4
  br label %132

132:                                              ; preds = %128, %124
  br label %133

133:                                              ; preds = %132, %119
  br label %134

134:                                              ; preds = %133, %118
  br label %135

135:                                              ; preds = %134, %70
  %136 = load i32, ptr %10, align 4
  call void @llvm.lifetime.end.p0(i64 4, ptr %19) #4
  call void @llvm.lifetime.end.p0(i64 8, ptr %18) #4
  call void @llvm.lifetime.end.p0(i64 8, ptr %17) #4
  ret i32 %136
}